; Function Attrs: nounwind uwtable
define dso_local ptr @lookupKeyReadWithFlags(ptr noundef %0, ptr noundef %1, i32 noundef %2) local_unnamed_addr #0 {
  %4 = and i32 %2, 8
  %.not = icmp eq i32 %4, 0
  br i1 %.not, label %6, label %5, !prof !73

5:                                                ; preds = %3
  tail call void @_serverAssert(ptr noundef nonnull @.str.1, ptr noundef nonnull @.str.2, i32 noundef 190) #20
  tail call void @abort() #21
  unreachable

6:                                                ; preds = %3
  %7 = tail call ptr @lookupKey(ptr noundef %0, ptr noundef %1, i32 noundef %2, ptr noundef null)
  ret ptr %7
}